; Function Attrs: mustprogress uwtable
define void @_ZNK5arrow5Array9SliceSafeEl(ptr dead_on_unwind noalias writable sret(%"class.arrow::Result.29") align 8 %0, ptr noundef nonnull readonly align 8 captures(none) dereferenceable(32) %1, i64 noundef %2) local_unnamed_addr #1 align 2 {
  %4 = alloca %"class.arrow::Status", align 8
  %5 = icmp slt i64 %2, 0
  br i1 %5, label %6, label %13

6:                                                ; preds = %3
  call void @llvm.lifetime.start.p0(i64 8, ptr nonnull %4) #20
  call void @_ZN5arrow6Status8FromArgsIJRA28_KcEEES0_NS_10StatusCodeEDpOT_(ptr dead_on_unwind nonnull writable sret(%"class.arrow::Status") align 8 %4, i8 noundef signext 7, ptr noundef nonnull align 1 dereferenceable(28) @.str)
  call void @_ZN5arrow6ResultISt10shared_ptrINS_5ArrayEEEC2ERKNS_6StatusE(ptr noundef nonnull align 8 dereferenceable(24) %0, ptr noundef nonnull align 8 dereferenceable(8) %4) #20
  %7 = load ptr, ptr %4, align 8, !tbaa !87
  %.not.i = icmp eq ptr %7, null
  br i1 %.not.i, label %_ZN5arrow6StatusD2Ev.exit, label %8, !prof !90

8:                                                ; preds = %6
  %9 = getelementptr inbounds nuw i8, ptr %7, i64 1
  %10 = load i8, ptr %9, align 1, !tbaa !91, !range !98, !noundef !99
  %11 = trunc nuw i8 %10 to i1
  br i1 %11, label %_ZN5arrow6StatusD2Ev.exit, label %12

12:                                               ; preds = %8
  call void @_ZN5arrow6Status11DeleteStateEv(ptr noundef nonnull align 8 dereferenceable(8) %4) #20
  br label %_ZN5arrow6StatusD2Ev.exit

_ZN5arrow6StatusD2Ev.exit:                        ; preds = %6, %8, %12
  call void @llvm.lifetime.end.p0(i64 8, ptr nonnull %4) #20
  br label %19

13:                                               ; preds = %3
  %14 = getelementptr inbounds nuw i8, ptr %1, i64 8
  %15 = load ptr, ptr %14, align 8, !tbaa !32
  %16 = getelementptr inbounds nuw i8, ptr %15, i64 16
  %17 = load i64, ptr %16, align 8, !tbaa !55
  %18 = sub nsw i64 %17, %2
  tail call void @_ZNK5arrow5Array9SliceSafeEll(ptr dead_on_unwind writable sret(%"class.arrow::Result.29") align 8 %0, ptr noundef nonnull align 8 dereferenceable(32) %1, i64 noundef %2, i64 noundef %18)
  br label %19

19:                                               ; preds = %13, %_ZN5arrow6StatusD2Ev.exit
  ret void
}